; ModuleID = '15/120.c'
source_filename = "15/120.c"
target datalayout = "e-m:e-p270:32:32-p271:32:32-p272:64:64-i64:64-f80:128-n8:16:32:64-S128"
target triple = "x86_64-pc-linux-gnu"

@.str = private unnamed_addr constant [3 x i8] c"%d\00", align 1
@.str.1 = private unnamed_addr constant [4 x i8] c"%d\0A\00", align 1
@.str.2 = private unnamed_addr constant [12 x i8] c"%d %d %d %d\00", align 1

; Function Attrs: noinline nounwind uwtable
define dso_local i32 @main() #0 {
  %1 = alloca i32, align 4
  %2 = alloca [100 x [100 x i32]], align 16
  %3 = alloca i32, align 4
  %4 = alloca i32, align 4
  %5 = alloca i32, align 4
  %6 = alloca i32, align 4
  %7 = alloca i32, align 4
  %8 = alloca i32, align 4
  %9 = alloca i32, align 4
  %10 = alloca i32, align 4
  store i32 0, i32* %1, align 4
  store i32 0, i32* %3, align 4
  store i32 0, i32* %4, align 4
  store i32 0, i32* %5, align 4
  store i32 0, i32* %6, align 4
  store i32 0, i32* %7, align 4
  store i32 0, i32* %8, align 4
  %11 = call i32 (i8*, ...) @__isoc99_scanf(i8* getelementptr inbounds ([3 x i8], [3 x i8]* @.str, i64 0, i64 0), i32* %8)
  %12 = getelementptr inbounds [100 x [100 x i32]], [100 x [100 x i32]]* %2, i64 0, i64 0
  %13 = bitcast [100 x i32]* %12 to i8*
  call void @llvm.memset.p0i8.i64(i8* align 16 %13, i8 -1, i64 10000, i1 false)
  store i32 0, i32* %9, align 4
  br label %14

14:                                               ; preds = %35, %0
  %15 = load i32, i32* %9, align 4
  %16 = load i32, i32* %8, align 4
  %17 = icmp slt i32 %15, %16
  br i1 %17, label %18, label %38

18:                                               ; preds = %14
  store i32 0, i32* %10, align 4
  br label %19

19:                                               ; preds = %31, %18
  %20 = load i32, i32* %10, align 4
  %21 = load i32, i32* %8, align 4
  %22 = icmp slt i32 %20, %21
  br i1 %22, label %23, label %34

23:                                               ; preds = %19
  %24 = load i32, i32* %9, align 4
  %25 = sext i32 %24 to i64
  %26 = getelementptr inbounds [100 x [100 x i32]], [100 x [100 x i32]]* %2, i64 0, i64 %25
  %27 = load i32, i32* %10, align 4
  %28 = sext i32 %27 to i64
  %29 = getelementptr inbounds [100 x i32], [100 x i32]* %26, i64 0, i64 %28
  %30 = call i32 (i8*, ...) @__isoc99_scanf(i8* getelementptr inbounds ([3 x i8], [3 x i8]* @.str, i64 0, i64 0), i32* %29)
  br label %31

31:                                               ; preds = %23
  %32 = load i32, i32* %10, align 4
  %33 = add nsw i32 %32, 1
  store i32 %33, i32* %10, align 4
  br label %19

34:                                               ; preds = %19
  br label %35

35:                                               ; preds = %34
  %36 = load i32, i32* %9, align 4
  %37 = add nsw i32 %36, 1
  store i32 %37, i32* %9, align 4
  br label %14

38:                                               ; preds = %14
  store i32 0, i32* %9, align 4
  br label %39

39:                                               ; preds = %118, %38
  %40 = load i32, i32* %9, align 4
  %41 = load i32, i32* %8, align 4
  %42 = icmp slt i32 %40, %41
  br i1 %42, label %43, label %121

43:                                               ; preds = %39
  store i32 0, i32* %10, align 4
  br label %44

44:                                               ; preds = %114, %43
  %45 = load i32, i32* %10, align 4
  %46 = load i32, i32* %8, align 4
  %47 = icmp slt i32 %45, %46
  br i1 %47, label %48, label %117

48:                                               ; preds = %44
  %49 = load i32, i32* %9, align 4
  %50 = sext i32 %49 to i64
  %51 = getelementptr inbounds [100 x [100 x i32]], [100 x [100 x i32]]* %2, i64 0, i64 %50
  %52 = load i32, i32* %10, align 4
  %53 = sext i32 %52 to i64
  %54 = getelementptr inbounds [100 x i32], [100 x i32]* %51, i64 0, i64 %53
  %55 = load i32, i32* %54, align 4
  %56 = icmp eq i32 %55, 0
  br i1 %56, label %57, label %80

57:                                               ; preds = %48
  %58 = load i32, i32* %9, align 4
  %59 = add nsw i32 %58, 1
  %60 = sext i32 %59 to i64
  %61 = getelementptr inbounds [100 x [100 x i32]], [100 x [100 x i32]]* %2, i64 0, i64 %60
  %62 = load i32, i32* %10, align 4
  %63 = sext i32 %62 to i64
  %64 = getelementptr inbounds [100 x i32], [100 x i32]* %61, i64 0, i64 %63
  %65 = load i32, i32* %64, align 4
  %66 = icmp eq i32 %65, 0
  br i1 %66, label %67, label %80

67:                                               ; preds = %57
  %68 = load i32, i32* %9, align 4
  %69 = sext i32 %68 to i64
  %70 = getelementptr inbounds [100 x [100 x i32]], [100 x [100 x i32]]* %2, i64 0, i64 %69
  %71 = load i32, i32* %10, align 4
  %72 = add nsw i32 %71, 1
  %73 = sext i32 %72 to i64
  %74 = getelementptr inbounds [100 x i32], [100 x i32]* %70, i64 0, i64 %73
  %75 = load i32, i32* %74, align 4
  %76 = icmp eq i32 %75, 0
  br i1 %76, label %77, label %80

77:                                               ; preds = %67
  %78 = load i32, i32* %9, align 4
  store i32 %78, i32* %3, align 4
  %79 = load i32, i32* %10, align 4
  store i32 %79, i32* %4, align 4
  br label %113

80:                                               ; preds = %67, %57, %48
  %81 = load i32, i32* %9, align 4
  %82 = sext i32 %81 to i64
  %83 = getelementptr inbounds [100 x [100 x i32]], [100 x [100 x i32]]* %2, i64 0, i64 %82
  %84 = load i32, i32* %10, align 4
  %85 = sext i32 %84 to i64
  %86 = getelementptr inbounds [100 x i32], [100 x i32]* %83, i64 0, i64 %85
  %87 = load i32, i32* %86, align 4
  %88 = icmp eq i32 %87, 0
  br i1 %88, label %89, label %112

89:                                               ; preds = %80
  %90 = load i32, i32* %9, align 4
  %91 = sub nsw i32 %90, 1
  %92 = sext i32 %91 to i64
  %93 = getelementptr inbounds [100 x [100 x i32]], [100 x [100 x i32]]* %2, i64 0, i64 %92
  %94 = load i32, i32* %10, align 4
  %95 = sext i32 %94 to i64
  %96 = getelementptr inbounds [100 x i32], [100 x i32]* %93, i64 0, i64 %95
  %97 = load i32, i32* %96, align 4
  %98 = icmp eq i32 %97, 0
  br i1 %98, label %99, label %112

99:                                               ; preds = %89
  %100 = load i32, i32* %9, align 4
  %101 = sext i32 %100 to i64
  %102 = getelementptr inbounds [100 x [100 x i32]], [100 x [100 x i32]]* %2, i64 0, i64 %101
  %103 = load i32, i32* %10, align 4
  %104 = sub nsw i32 %103, 1
  %105 = sext i32 %104 to i64
  %106 = getelementptr inbounds [100 x i32], [100 x i32]* %102, i64 0, i64 %105
  %107 = load i32, i32* %106, align 4
  %108 = icmp eq i32 %107, 0
  br i1 %108, label %109, label %112

109:                                              ; preds = %99
  %110 = load i32, i32* %9, align 4
  store i32 %110, i32* %5, align 4
  %111 = load i32, i32* %10, align 4
  store i32 %111, i32* %6, align 4
  br label %112

112:                                              ; preds = %109, %99, %89, %80
  br label %113

113:                                              ; preds = %112, %77
  br label %114

114:                                              ; preds = %113
  %115 = load i32, i32* %10, align 4
  %116 = add nsw i32 %115, 1
  store i32 %116, i32* %10, align 4
  br label %44

117:                                              ; preds = %44
  br label %118

118:                                              ; preds = %117
  %119 = load i32, i32* %9, align 4
  %120 = add nsw i32 %119, 1
  store i32 %120, i32* %9, align 4
  br label %39

121:                                              ; preds = %39
  %122 = load i32, i32* %6, align 4
  %123 = load i32, i32* %4, align 4
  %124 = sub nsw i32 %122, %123
  %125 = sub nsw i32 %124, 1
  %126 = load i32, i32* %5, align 4
  %127 = load i32, i32* %3, align 4
  %128 = sub nsw i32 %126, %127
  %129 = sub nsw i32 %128, 1
  %130 = mul nsw i32 %125, %129
  store i32 %130, i32* %7, align 4
  %131 = load i32, i32* %7, align 4
  %132 = call i32 (i8*, ...) @printf(i8* getelementptr inbounds ([4 x i8], [4 x i8]* @.str.1, i64 0, i64 0), i32 %131)
  %133 = load i32, i32* %3, align 4
  %134 = load i32, i32* %4, align 4
  %135 = load i32, i32* %5, align 4
  %136 = load i32, i32* %6, align 4
  %137 = call i32 (i8*, ...) @printf(i8* getelementptr inbounds ([12 x i8], [12 x i8]* @.str.2, i64 0, i64 0), i32 %133, i32 %134, i32 %135, i32 %136)
  ret i32 0
}

declare dso_local i32 @__isoc99_scanf(i8*, ...) #1

; Function Attrs: argmemonly nounwind willreturn
declare void @llvm.memset.p0i8.i64(i8* nocapture writeonly, i8, i64, i1 immarg) #2

declare dso_local i32 @printf(i8*, ...) #1


!llvm.module.flags = !{!0}
!llvm.ident = !{!1}

!0 = !{i32 1, !"wchar_size", i32 4}
!1 = !{!"clang version 10.0.0-4ubuntu1 "}
